; Function Attrs: mustprogress uwtable
define noundef ptr @Z3_mk_quantifier_ex(ptr noundef %c, i1 noundef zeroext %is_forall, i32 noundef %weight, ptr noundef %quantifier_id, ptr noundef %skolem_id, i32 noundef %num_patterns, ptr noundef %patterns, i32 noundef %num_no_patterns, ptr noundef %no_patterns, i32 noundef %num_decls, ptr noundef %sorts, ptr noundef %decl_names, ptr noundef %body) local_unnamed_addr #3 personality ptr @__gxx_personality_v0 {
entry:
  %0 = atomicrmw xchg ptr @g_z3_log_enabled, i8 0 seq_cst, align 1
  %1 = and i8 %0, 1
  %tobool.i.not = icmp eq i8 %1, 0
  br i1 %tobool.i.not, label %if.end, label %if.then

if.then:                                          ; preds = %entry
  invoke void @_Z23log_Z3_mk_quantifier_exP11_Z3_contextbjP10_Z3_symbolS2_jPKP11_Z3_patternjPKP7_Z3_astjPKP8_Z3_sortPKS2_S8_(ptr noundef %c, i1 noundef zeroext %is_forall, i32 noundef %weight, ptr noundef %quantifier_id, ptr noundef %skolem_id, i32 noundef %num_patterns, ptr noundef %patterns, i32 noundef %num_no_patterns, ptr noundef %no_patterns, i32 noundef %num_decls, ptr noundef %sorts, ptr noundef %decl_names, ptr noundef %body)
          to label %if.end unwind label %lpad.thread

lpad.thread:                                      ; preds = %if.then7, %if.then
  %lpad.thr_comm22 = landingpad { ptr, i32 }
          cleanup
  br label %if.then.i

lpad:                                             ; preds = %if.end
  %lpad.thr_comm.split-lp23 = landingpad { ptr, i32 }
          cleanup
  br i1 %tobool.i.not, label %_ZN10z3_log_ctxD2Ev.exit, label %if.then.i

if.then.i:                                        ; preds = %lpad.thread, %lpad
  %lpad.phi26 = phi { ptr, i32 } [ %lpad.thr_comm22, %lpad.thread ], [ %lpad.thr_comm.split-lp23, %lpad ]
  store atomic i8 1, ptr @g_z3_log_enabled seq_cst, align 1
  br label %_ZN10z3_log_ctxD2Ev.exit

_ZN10z3_log_ctxD2Ev.exit:                         ; preds = %lpad, %if.then.i
  %lpad.phi27 = phi { ptr, i32 } [ %lpad.thr_comm.split-lp23, %lpad ], [ %lpad.phi26, %if.then.i ]
  resume { ptr, i32 } %lpad.phi27

if.end:                                           ; preds = %if.then, %entry
  %call4 = invoke ptr @mk_quantifier_ex_core(ptr noundef %c, i1 noundef zeroext %is_forall, i32 noundef %weight, ptr noundef %quantifier_id, ptr noundef %skolem_id, i32 noundef %num_patterns, ptr noundef %patterns, i32 noundef %num_no_patterns, ptr noundef %no_patterns, i32 noundef %num_decls, ptr noundef %sorts, ptr noundef %decl_names, ptr noundef %body)
          to label %invoke.cont3 unwind label %lpad

invoke.cont3:                                     ; preds = %if.end
  br i1 %tobool.i.not, label %_ZN10z3_log_ctxD2Ev.exit18, label %if.then7

if.then7:                                         ; preds = %invoke.cont3
  invoke void @_Z4SetRPv(ptr noundef %call4)
          to label %if.then.i17 unwind label %lpad.thread

if.then.i17:                                      ; preds = %if.then7
  store atomic i8 1, ptr @g_z3_log_enabled seq_cst, align 1
  br label %_ZN10z3_log_ctxD2Ev.exit18

_ZN10z3_log_ctxD2Ev.exit18:                       ; preds = %invoke.cont3, %if.then.i17
  ret ptr %call4
}